; Function Attrs: nounwind uwtable
define internal fastcc range(i32 -5, 1) i32 @ops_make_string_pool(ptr noundef captures(none) %0) unnamed_addr #6 {
  %2 = load ptr, ptr %0, align 8, !tbaa !17
  %3 = icmp eq ptr %2, null
  br i1 %3, label %ops_calc_size_of_string_pool.exit.thread, label %.preheader.i

.preheader.i:                                     ; preds = %1
  %4 = getelementptr inbounds nuw i8, ptr %0, i64 24
  %5 = load i32, ptr %4, align 8, !tbaa !18
  %6 = icmp sgt i32 %5, 0
  br i1 %6, label %.lr.ph.i, label %ops_calc_size_of_string_pool.exit.thread

.lr.ph.i:                                         ; preds = %.preheader.i
  %7 = getelementptr inbounds nuw i8, ptr %0, i64 8
  %8 = load ptr, ptr %7, align 8, !tbaa !19
  %wide.trip.count.i = zext nneg i32 %5 to i64
  br label %9

9:                                                ; preds = %30, %.lr.ph.i
  %indvars.iv.i = phi i64 [ 0, %.lr.ph.i ], [ %indvars.iv.next.i, %30 ]
  %.01819.i = phi i32 [ 0, %.lr.ph.i ], [ %.1.i, %30 ]
  %10 = getelementptr inbounds nuw %struct.Operation, ptr %2, i64 %indvars.iv.i
  %11 = getelementptr inbounds nuw i32, ptr %8, i64 %indvars.iv.i
  %12 = load i32, ptr %11, align 4, !tbaa !4
  switch i32 %12, label %30 [
    i32 13, label %13
    i32 7, label %20
    i32 11, label %20
    i32 12, label %25
  ]

13:                                               ; preds = %9
  %14 = getelementptr inbounds nuw i8, ptr %10, i64 20
  %15 = load i32, ptr %14, align 4, !tbaa !20
  %16 = getelementptr inbounds nuw i8, ptr %10, i64 16
  %17 = load i32, ptr %16, align 8, !tbaa !20
  %18 = mul nsw i32 %17, %15
  %19 = add nsw i32 %18, %.01819.i
  br label %30

20:                                               ; preds = %9, %9
  %21 = getelementptr inbounds nuw i8, ptr %10, i64 16
  %22 = load i32, ptr %21, align 8, !tbaa !20
  %23 = shl nsw i32 %22, 1
  %24 = add nsw i32 %23, %.01819.i
  br label %30

25:                                               ; preds = %9
  %26 = getelementptr inbounds nuw i8, ptr %10, i64 16
  %27 = load i32, ptr %26, align 8, !tbaa !20
  %28 = mul nsw i32 %27, 3
  %29 = add nsw i32 %28, %.01819.i
  br label %30

30:                                               ; preds = %25, %20, %13, %9
  %.1.i = phi i32 [ %.01819.i, %9 ], [ %29, %25 ], [ %24, %20 ], [ %19, %13 ]
  %indvars.iv.next.i = add nuw nsw i64 %indvars.iv.i, 1
  %exitcond.not.i = icmp eq i64 %indvars.iv.next.i, %wide.trip.count.i
  br i1 %exitcond.not.i, label %ops_calc_size_of_string_pool.exit, label %9, !llvm.loop !165

ops_calc_size_of_string_pool.exit:                ; preds = %30
  %31 = icmp slt i32 %.1.i, 1
  br i1 %31, label %ops_calc_size_of_string_pool.exit.thread, label %32

32:                                               ; preds = %ops_calc_size_of_string_pool.exit
  %33 = zext nneg i32 %.1.i to i64
  %34 = tail call noalias ptr @malloc(i64 noundef %33) #24
  %35 = icmp eq ptr %34, null
  br i1 %35, label %ops_calc_size_of_string_pool.exit.thread, label %.lr.ph

.lr.ph:                                           ; preds = %32, %69
  %indvars.iv = phi i64 [ %indvars.iv.next, %69 ], [ 0, %32 ]
  %.03944 = phi ptr [ %.1, %69 ], [ %34, %32 ]
  %36 = load ptr, ptr %0, align 8, !tbaa !17
  %37 = getelementptr inbounds nuw %struct.Operation, ptr %36, i64 %indvars.iv
  %38 = load ptr, ptr %7, align 8, !tbaa !19
  %39 = getelementptr inbounds nuw i32, ptr %38, i64 %indvars.iv
  %40 = load i32, ptr %39, align 4, !tbaa !4
  switch i32 %40, label %69 [
    i32 13, label %41
    i32 7, label %52
    i32 11, label %61
    i32 12, label %65
  ]

41:                                               ; preds = %.lr.ph
  %42 = getelementptr inbounds nuw i8, ptr %37, i64 8
  %43 = getelementptr inbounds nuw i8, ptr %37, i64 20
  %44 = load i32, ptr %43, align 4, !tbaa !20
  %45 = getelementptr inbounds nuw i8, ptr %37, i64 16
  %46 = load i32, ptr %45, align 8, !tbaa !20
  %47 = mul nsw i32 %46, %44
  %48 = load ptr, ptr %42, align 8, !tbaa !20
  %49 = sext i32 %47 to i64
  tail call void @llvm.memcpy.p0.p0.i64(ptr align 1 %.03944, ptr align 1 %48, i64 %49, i1 false)
  %50 = load ptr, ptr %42, align 8, !tbaa !20
  tail call void @free(ptr noundef %50) #22
  store ptr %.03944, ptr %42, align 8, !tbaa !20
  %51 = getelementptr inbounds i8, ptr %.03944, i64 %49
  br label %69

52:                                               ; preds = %.lr.ph
  %53 = getelementptr inbounds nuw i8, ptr %37, i64 16
  %54 = load i32, ptr %53, align 8, !tbaa !20
  br label %55

55:                                               ; preds = %65, %61, %52
  %.040 = phi i32 [ %68, %65 ], [ %64, %61 ], [ %54, %52 ]
  %56 = getelementptr inbounds nuw i8, ptr %37, i64 8
  %57 = load ptr, ptr %56, align 8, !tbaa !20
  %58 = sext i32 %.040 to i64
  tail call void @llvm.memcpy.p0.p0.i64(ptr align 1 %.03944, ptr align 1 %57, i64 %58, i1 false)
  %59 = load ptr, ptr %56, align 8, !tbaa !20
  tail call void @free(ptr noundef %59) #22
  store ptr %.03944, ptr %56, align 8, !tbaa !20
  %60 = getelementptr inbounds i8, ptr %.03944, i64 %58
  br label %69

61:                                               ; preds = %.lr.ph
  %62 = getelementptr inbounds nuw i8, ptr %37, i64 16
  %63 = load i32, ptr %62, align 8, !tbaa !20
  %64 = shl nsw i32 %63, 1
  br label %55

65:                                               ; preds = %.lr.ph
  %66 = getelementptr inbounds nuw i8, ptr %37, i64 16
  %67 = load i32, ptr %66, align 8, !tbaa !20
  %68 = mul nsw i32 %67, 3
  br label %55

69:                                               ; preds = %.lr.ph, %55, %41
  %.1 = phi ptr [ %.03944, %.lr.ph ], [ %60, %55 ], [ %51, %41 ]
  %indvars.iv.next = add nuw nsw i64 %indvars.iv, 1
  %70 = load i32, ptr %4, align 8, !tbaa !18
  %71 = sext i32 %70 to i64
  %72 = icmp slt i64 %indvars.iv.next, %71
  br i1 %72, label %.lr.ph, label %._crit_edge, !llvm.loop !166

._crit_edge:                                      ; preds = %69
  %73 = getelementptr inbounds nuw i8, ptr %0, i64 32
  store ptr %34, ptr %73, align 8, !tbaa !21
  %74 = getelementptr inbounds nuw i8, ptr %34, i64 %33
  %75 = getelementptr inbounds nuw i8, ptr %0, i64 40
  store ptr %74, ptr %75, align 8, !tbaa !22
  br label %ops_calc_size_of_string_pool.exit.thread

ops_calc_size_of_string_pool.exit.thread:         ; preds = %.preheader.i, %1, %32, %ops_calc_size_of_string_pool.exit, %._crit_edge
  %.0 = phi i32 [ 0, %._crit_edge ], [ 0, %ops_calc_size_of_string_pool.exit ], [ -5, %32 ], [ 0, %1 ], [ 0, %.preheader.i ]
  ret i32 %.0
}